(dp1
S'swftp_sftp'
p2
ccopy_reg
_reconstructor
p3
(ctwisted.plugin
CachedDropin
p4
c__builtin__
object
p5
NtRp6
(dp7
S'moduleName'
p8
S'twisted.plugins.swftp_sftp'
p9
sS'description'
p10
S'\nDefines serviceMaker, which required for automatic twistd integration for\nswftp-sftp\n\nSee COPYING for license information.\n'
p11
sS'plugins'
p12
(lp13
g3
(ctwisted.plugin
CachedPlugin
p14
g5
NtRp15
(dp16
S'provided'
p17
(lp18
ctwisted.plugin
IPlugin
p19
actwisted.application.service
IServiceMaker
p20
asS'dropin'
p21
g6
sS'name'
p22
S'serviceMaker'
p23
sg10
S'\n    Utility class to simplify the definition of L{IServiceMaker} plugins.\n    '
p24
sbasbsS'swftp_ftp'
p25
g3
(g4
g5
NtRp26
(dp27
g8
S'twisted.plugins.swftp_ftp'
p28
sg10
S'\nDefines serviceMaker, which required for automatic twistd integration for\nswftp-ftp\n\nSee COPYING for license information.\n'
p29
sg12
(lp30
g3
(g14
g5
NtRp31
(dp32
g17
(lp33
g19
ag20
asg21
g26
sg22
g23
sg10
g24
sbasbs.