(dp1
S'failed'
p2
(lp3
sS'source_names'
p4
(lp5
S'.'
asS'ids'
p6
(dp7
I1
(S'/Users/Dave/Dropbox/github_projects/dryxPython/dryxPython/command_line.py'
S'dryxPython.command_line'
Ntp8
sI2
(S'/Users/Dave/Dropbox/github_projects/dryxPython/dryxPython/tests/__init__.py'
S'dryxPython.tests'
p9
S'TestUM.test_numbers_5_6'
tp10
sI3
(S'/Users/Dave/Dropbox/github_projects/dryxPython/dryxPython/tests/__init__.py'
g9
S'TestUM.test_strings_b_2'
tp11
sI4
(S'/Users/Dave/Dropbox/github_projects/dryxPython/dryxPython/tests/__init__.py'
g9
S'test_numbers_3_4'
tp12
sI5
(S'/Users/Dave/Dropbox/github_projects/dryxPython/dryxPython/tests/__init__.py'
g9
S'test_strings_a_3'
tp13
sI6
(S'/Users/Dave/Dropbox/github_projects/dryxPython/dryxPython/tests/dest_command_line.py'
S'dryxPython.tests.dest_command_line'
Ntp14
sI7
(S'/Users/Dave/Dropbox/github_projects/dryxPython/dryxPython/tests/dest_joke.py'
S'dryxPython.tests.dest_joke'
S'TestConvertFitsToDictionary.test_is_string'
tp15
sI8
(S'/Users/Dave/Dropbox/github_projects/dryxPython/dryxPython/tests/test_fitstools.py'
S'dryxPython.tests.test_fitstools'
S'test_convert_fits_header_to_dictionary'
tp16
ss.