(dp0
S'test_account'
p1
(imendeleystats.mendeley_client
MendeleyAccount
p2
(dp3
S'access_token'
p4
ccopy_reg
_reconstructor
p5
(coauth2
Token
p6
c__builtin__
object
p7
Ntp8
Rp9
(dp10
S'secret'
p11
Vf43cd64e92ee5eeeb1c6ec595492e005
p12
sS'key'
p13
V4617a8dcc308fa1aedef3e4884bc9c8d051ddaff8
p14
sbsbs.