Certificate:
    Data:
        Version: 3 (0x2)
        Serial Number: 12696925968601566752 (0xb0348ae5b1edce20)
    Signature Algorithm: sha1WithRSAEncryption
        Issuer: C=xx, ST=none, O=PyMail, CN=PyMail
        Validity
            Not Before: Jul 11 18:28:41 2013 GMT
            Not After : Jul 10 18:28:41 2016 GMT
        Subject: C=xx, ST=none, O=PyMail, CN=PyMail
        Subject Public Key Info:
            Public Key Algorithm: rsaEncryption
                Public-Key: (1024 bit)
                Modulus:
                    00:e5:68:ff:f2:5d:a6:85:de:18:50:8c:13:6c:fa:
                    cc:fe:97:5b:36:4d:42:95:f9:b8:68:9e:39:1e:04:
                    80:56:3d:9c:82:ac:9f:a3:ee:f3:a9:03:6c:a8:5a:
                    1f:cf:43:fb:3b:31:29:82:5c:39:70:29:c2:e5:59:
                    e7:9e:ab:ef:cb:1f:ee:9c:13:18:7c:e5:09:b8:65:
                    ea:19:1a:28:62:52:19:0e:57:c6:13:c7:8e:71:9d:
                    3f:ca:bd:65:06:11:bf:a1:13:3a:88:2d:fa:0e:ff:
                    5a:36:16:5b:74:74:11:9f:72:03:6c:3f:33:fc:bd:
                    3e:c8:c0:97:a5:4e:97:4c:eb
                Exponent: 65537 (0x10001)
        X509v3 extensions:
            X509v3 Subject Key Identifier: 
                37:77:72:3B:9C:6F:07:6C:F5:24:B9:CD:E1:3F:3B:E0:CD:EE:C0:55
            X509v3 Authority Key Identifier: 
                keyid:37:77:72:3B:9C:6F:07:6C:F5:24:B9:CD:E1:3F:3B:E0:CD:EE:C0:55

            X509v3 Basic Constraints: 
                CA:TRUE
    Signature Algorithm: sha1WithRSAEncryption
         5f:b0:c0:01:83:eb:1e:84:c5:36:f8:86:0f:dc:73:06:0f:fd:
         bf:1b:20:a2:24:da:ed:fa:d7:77:61:9a:48:aa:66:02:82:28:
         7e:5f:2e:47:67:55:31:58:ee:ab:7d:20:0a:a7:0a:b4:a6:28:
         d0:e3:00:a9:f8:ac:98:72:cd:77:9d:02:cf:51:c2:8a:dc:0c:
         68:74:d0:2f:9c:b3:dc:88:c9:98:44:a2:a0:21:ea:f7:87:e7:
         fa:18:e4:86:07:05:05:f5:16:38:52:17:fb:56:02:30:d3:e3:
         e7:78:3a:23:9a:8d:77:39:dc:4c:83:44:2a:16:20:de:3a:71:
         b2:92
-----BEGIN CERTIFICATE-----
MIICSjCCAbOgAwIBAgIJALA0iuWx7c4gMA0GCSqGSIb3DQEBBQUAMD4xCzAJBgNV
BAYTAnh4MQ0wCwYDVQQIDARub25lMQ8wDQYDVQQKDAZQeU1haWwxDzANBgNVBAMM
BlB5TWFpbDAeFw0xMzA3MTExODI4NDFaFw0xNjA3MTAxODI4NDFaMD4xCzAJBgNV
BAYTAnh4MQ0wCwYDVQQIDARub25lMQ8wDQYDVQQKDAZQeU1haWwxDzANBgNVBAMM
BlB5TWFpbDCBnzANBgkqhkiG9w0BAQEFAAOBjQAwgYkCgYEA5Wj/8l2mhd4YUIwT
bPrM/pdbNk1Clfm4aJ45HgSAVj2cgqyfo+7zqQNsqFofz0P7OzEpglw5cCnC5Vnn
nqvvyx/unBMYfOUJuGXqGRooYlIZDlfGE8eOcZ0/yr1lBhG/oRM6iC36Dv9aNhZb
dHQRn3IDbD8z/L0+yMCXpU6XTOsCAwEAAaNQME4wHQYDVR0OBBYEFDd3cjucbwds
9SS5zeE/O+DN7sBVMB8GA1UdIwQYMBaAFDd3cjucbwds9SS5zeE/O+DN7sBVMAwG
A1UdEwQFMAMBAf8wDQYJKoZIhvcNAQEFBQADgYEAX7DAAYPrHoTFNviGD9xzBg/9
vxsgoiTa7frXd2GaSKpmAoIofl8uR2dVMVjuq30gCqcKtKYo0OMAqfismHLNd50C
z1HCitwMaHTQL5yz3IjJmESioCHq94fn+hjkhgcFBfUWOFIX+1YCMNPj53g6I5qN
dzncTINEKhYg3jpxspI=
-----END CERTIFICATE-----
